; Function Attrs: mustprogress uwtable
define internal void @_ZNK9grpc_core11json_detail24FinishedJsonObjectLoaderINS_12_GLOBAL__N_124WeightedRoundRobinConfigELm6EvE8LoadIntoERKNS_12experimental4JsonERKNS_8JsonArgsEPvPNS_16ValidationErrorsE(ptr noundef nonnull align 8 dereferenceable(200) %this, ptr noundef nonnull align 8 dereferenceable(56) %json, ptr noundef nonnull align 8 dereferenceable(8) %args, ptr noundef %dst, ptr noundef %errors) unnamed_addr #3 align 2 personality ptr @__gxx_personality_v0 {
entry:
  %field.i = alloca %"class.grpc_core::ValidationErrors::ScopedField", align 8
  %elements_ = getelementptr inbounds i8, ptr %this, i64 8
  %call4 = tail call noundef zeroext i1 @_ZN9grpc_core11json_detail10LoadObjectERKNS_12experimental4JsonERKNS_8JsonArgsEPKNS0_7ElementEmPvPNS_16ValidationErrorsE(ptr noundef nonnull align 8 dereferenceable(56) %json, ptr noundef nonnull align 8 dereferenceable(8) %args, ptr noundef nonnull %elements_, i64 noundef 6, ptr noundef %dst, ptr noundef %errors)
  br i1 %call4, label %if.then, label %if.end

if.then:                                          ; preds = %entry
  call void @llvm.lifetime.start.p0(i64 8, ptr nonnull %field.i)
  %weight_update_period_.i = getelementptr inbounds i8, ptr %dst, i64 40
  %0 = load i64, ptr %weight_update_period_.i, align 8
  %.sroa.speculated.i = tail call i64 @llvm.smax.i64(i64 %0, i64 100)
  store i64 %.sroa.speculated.i, ptr %weight_update_period_.i, align 8
  %error_utilization_penalty_.i = getelementptr inbounds i8, ptr %dst, i64 56
  %1 = load float, ptr %error_utilization_penalty_.i, align 8
  %cmp.i = fcmp olt float %1, 0.000000e+00
  br i1 %cmp.i, label %if.then.i, label %_ZN9grpc_core12_GLOBAL__N_124WeightedRoundRobinConfig12JsonPostLoadERKNS_12experimental4JsonERKNS_8JsonArgsEPNS_16ValidationErrorsE.exit

if.then.i:                                        ; preds = %if.then
  store ptr %errors, ptr %field.i, align 8
  tail call void @_ZN9grpc_core16ValidationErrors9PushFieldESt17basic_string_viewIcSt11char_traitsIcEE(ptr noundef nonnull align 8 dereferenceable(72) %errors, i64 24, ptr nonnull @.str.15)
  invoke void @_ZN9grpc_core16ValidationErrors8AddErrorESt17basic_string_viewIcSt11char_traitsIcEE(ptr noundef nonnull align 8 dereferenceable(72) %errors, i64 20, ptr nonnull @.str.16)
          to label %if.then.i.i unwind label %lpad.i

if.then.i.i:                                      ; preds = %if.then.i
  invoke void @_ZN9grpc_core16ValidationErrors8PopFieldEv(ptr noundef nonnull align 8 dereferenceable(72) %errors)
          to label %_ZN9grpc_core12_GLOBAL__N_124WeightedRoundRobinConfig12JsonPostLoadERKNS_12experimental4JsonERKNS_8JsonArgsEPNS_16ValidationErrorsE.exit unwind label %terminate.lpad.i.i

terminate.lpad.i.i:                               ; preds = %if.then.i.i
  %2 = landingpad { ptr, i32 }
          catch ptr null
  %3 = extractvalue { ptr, i32 } %2, 0
  tail call void @__clang_call_terminate(ptr %3) #31
  unreachable

lpad.i:                                           ; preds = %if.then.i
  %4 = landingpad { ptr, i32 }
          cleanup
  call void @_ZN9grpc_core16ValidationErrors11ScopedFieldD2Ev(ptr noundef nonnull align 8 dereferenceable(8) %field.i) #30
  resume { ptr, i32 } %4

_ZN9grpc_core12_GLOBAL__N_124WeightedRoundRobinConfig12JsonPostLoadERKNS_12experimental4JsonERKNS_8JsonArgsEPNS_16ValidationErrorsE.exit: ; preds = %if.then, %if.then.i.i
  call void @llvm.lifetime.end.p0(i64 8, ptr nonnull %field.i)
  br label %if.end

if.end:                                           ; preds = %_ZN9grpc_core12_GLOBAL__N_124WeightedRoundRobinConfig12JsonPostLoadERKNS_12experimental4JsonERKNS_8JsonArgsEPNS_16ValidationErrorsE.exit, %entry
  ret void
}